; Function Attrs: nounwind uwtable
define internal fastcc i32 @verify_cb_cert(ptr noundef initializes((184, 192)) %0, ptr noundef %1, i32 noundef %2, i32 noundef %3) unnamed_addr #0 {
  %5 = icmp slt i32 %2, 0
  %6 = getelementptr inbounds nuw i8, ptr %0, i64 172
  br i1 %5, label %7, label %9

7:                                                ; preds = %4
  %8 = load i32, ptr %6, align 4, !tbaa !55
  br label %10

9:                                                ; preds = %4
  store i32 %2, ptr %6, align 4, !tbaa !55
  br label %10

10:                                               ; preds = %9, %7
  %.0 = phi i32 [ %8, %7 ], [ %2, %9 ]
  %.not = icmp eq ptr %1, null
  br i1 %.not, label %11, label %15

11:                                               ; preds = %10
  %12 = getelementptr inbounds nuw i8, ptr %0, i64 152
  %13 = load ptr, ptr %12, align 8, !tbaa !56
  %14 = tail call ptr @OPENSSL_sk_value(ptr noundef %13, i32 noundef %.0) #10
  br label %15

15:                                               ; preds = %10, %11
  %16 = phi ptr [ %14, %11 ], [ %1, %10 ]
  %17 = getelementptr inbounds nuw i8, ptr %0, i64 184
  store ptr %16, ptr %17, align 8, !tbaa !57
  %.not16 = icmp eq i32 %3, 0
  br i1 %.not16, label %20, label %18

18:                                               ; preds = %15
  %19 = getelementptr inbounds nuw i8, ptr %0, i64 176
  store i32 %3, ptr %19, align 8, !tbaa !58
  br label %20

20:                                               ; preds = %18, %15
  %21 = getelementptr inbounds nuw i8, ptr %0, i64 56
  %22 = load ptr, ptr %21, align 8, !tbaa !59
  %23 = tail call i32 %22(i32 noundef 0, ptr noundef nonnull %0) #10
  ret i32 %23
}